target datalayout = "e-m:e-p270:32:32-p271:32:32-p272:64:64-i64:64-i128:128-f80:128-n8:16:32:64-S128"
target triple = "x86_64-pc-linux-gnu"

%struct.dlist_head = type { %struct.dlist_node }
%struct.dlist_node = type { ptr, ptr }
%struct.AutoVacuumShmemStruct = type { [2 x i32], i32, %struct.dclist_head, %struct.dlist_head, ptr, [256 x %struct.AutoVacuumWorkItem], %struct.pg_atomic_uint32 }
%struct.dclist_head = type { %struct.dlist_head, i32 }
%struct.AutoVacuumWorkItem = type { i32, i8, i8, i32, i32, i32 }
%struct.pg_atomic_uint32 = type { i32 }
%struct.WorkerInfoData = type { %struct.dlist_node, i32, i32, ptr, i64, %struct.pg_atomic_flag, i8 }
%struct.pg_atomic_flag = type { i8 }

@AutoVacuumShmem = internal global ptr null, align 8
@autovacuum_worker_slots = dso_local global i32 0, align 4
@.str.27 = private unnamed_addr constant [16 x i8] c"AutoVacuum Data\00", align 1
@IsUnderPostmaster = external global i8, align 1

; Function Attrs: inlinehint nounwind uwtable
define internal void @pg_atomic_clear_flag_impl(ptr noundef %0) #6 {
  %2 = alloca ptr, align 8
  store ptr %0, ptr %2, align 8
  call void asm sideeffect "", "~{memory},~{dirflag},~{fpsr},~{flags}"() #14, !srcloc !25
  %3 = load ptr, ptr %2, align 8
  %4 = getelementptr inbounds nuw %struct.pg_atomic_flag, ptr %3, i32 0, i32 0
  store volatile i8 0, ptr %4, align 1
  ret void
}

; Function Attrs: inlinehint nounwind uwtable
define internal void @pg_atomic_init_u32_impl(ptr noundef %0, i32 noundef %1) #6 {
  %3 = alloca ptr, align 8
  %4 = alloca i32, align 4
  store ptr %0, ptr %3, align 8
  store i32 %1, ptr %4, align 4
  %5 = load i32, ptr %4, align 4
  %6 = load ptr, ptr %3, align 8
  %7 = getelementptr inbounds nuw %struct.pg_atomic_uint32, ptr %6, i32 0, i32 0
  store volatile i32 %5, ptr %7, align 4
  ret void
}

; Function Attrs: inlinehint nounwind uwtable
define internal void @pg_atomic_init_flag_impl(ptr noundef %0) #6 {
  %2 = alloca ptr, align 8
  store ptr %0, ptr %2, align 8
  %3 = load ptr, ptr %2, align 8
  call void @pg_atomic_clear_flag_impl(ptr noundef %3)
  ret void
}

; Function Attrs: inlinehint nounwind uwtable
define internal void @dlist_push_head(ptr noundef %0, ptr noundef %1) #6 {
  %3 = alloca ptr, align 8
  %4 = alloca ptr, align 8
  store ptr %0, ptr %3, align 8
  store ptr %1, ptr %4, align 8
  %5 = load ptr, ptr %3, align 8
  %6 = getelementptr inbounds nuw %struct.dlist_head, ptr %5, i32 0, i32 0
  %7 = getelementptr inbounds nuw %struct.dlist_node, ptr %6, i32 0, i32 1
  %8 = load ptr, ptr %7, align 8
  %9 = icmp eq ptr %8, null
  br i1 %9, label %10, label %12

10:                                               ; preds = %2
  %11 = load ptr, ptr %3, align 8
  call void @dlist_init(ptr noundef %11)
  br label %12

12:                                               ; preds = %10, %2
  %13 = load ptr, ptr %3, align 8
  %14 = getelementptr inbounds nuw %struct.dlist_head, ptr %13, i32 0, i32 0
  %15 = getelementptr inbounds nuw %struct.dlist_node, ptr %14, i32 0, i32 1
  %16 = load ptr, ptr %15, align 8
  %17 = load ptr, ptr %4, align 8
  %18 = getelementptr inbounds nuw %struct.dlist_node, ptr %17, i32 0, i32 1
  store ptr %16, ptr %18, align 8
  %19 = load ptr, ptr %3, align 8
  %20 = getelementptr inbounds nuw %struct.dlist_head, ptr %19, i32 0, i32 0
  %21 = load ptr, ptr %4, align 8
  %22 = getelementptr inbounds nuw %struct.dlist_node, ptr %21, i32 0, i32 0
  store ptr %20, ptr %22, align 8
  %23 = load ptr, ptr %4, align 8
  %24 = load ptr, ptr %4, align 8
  %25 = getelementptr inbounds nuw %struct.dlist_node, ptr %24, i32 0, i32 1
  %26 = load ptr, ptr %25, align 8
  %27 = getelementptr inbounds nuw %struct.dlist_node, ptr %26, i32 0, i32 0
  store ptr %23, ptr %27, align 8
  %28 = load ptr, ptr %4, align 8
  %29 = load ptr, ptr %3, align 8
  %30 = getelementptr inbounds nuw %struct.dlist_head, ptr %29, i32 0, i32 0
  %31 = getelementptr inbounds nuw %struct.dlist_node, ptr %30, i32 0, i32 1
  store ptr %28, ptr %31, align 8
  ret void
}

; Function Attrs: inlinehint nounwind uwtable
define internal void @pg_atomic_init_u32(ptr noundef %0, i32 noundef %1) #6 {
  %3 = alloca ptr, align 8
  %4 = alloca i32, align 4
  store ptr %0, ptr %3, align 8
  store i32 %1, ptr %4, align 4
  %5 = load ptr, ptr %3, align 8
  %6 = load i32, ptr %4, align 4
  call void @pg_atomic_init_u32_impl(ptr noundef %5, i32 noundef %6)
  ret void
}

; Function Attrs: inlinehint nounwind uwtable
define internal void @pg_atomic_init_flag(ptr noundef %0) #6 {
  %2 = alloca ptr, align 8
  store ptr %0, ptr %2, align 8
  %3 = load ptr, ptr %2, align 8
  call void @pg_atomic_init_flag_impl(ptr noundef %3)
  ret void
}

; Function Attrs: inlinehint nounwind uwtable
define internal void @dclist_push_head(ptr noundef %0, ptr noundef %1) #6 {
  %3 = alloca ptr, align 8
  %4 = alloca ptr, align 8
  store ptr %0, ptr %3, align 8
  store ptr %1, ptr %4, align 8
  %5 = load ptr, ptr %3, align 8
  %6 = getelementptr inbounds nuw %struct.dclist_head, ptr %5, i32 0, i32 0
  %7 = getelementptr inbounds nuw %struct.dlist_head, ptr %6, i32 0, i32 0
  %8 = getelementptr inbounds nuw %struct.dlist_node, ptr %7, i32 0, i32 1
  %9 = load ptr, ptr %8, align 8
  %10 = icmp eq ptr %9, null
  br i1 %10, label %11, label %13

11:                                               ; preds = %2
  %12 = load ptr, ptr %3, align 8
  call void @dclist_init(ptr noundef %12)
  br label %13

13:                                               ; preds = %11, %2
  %14 = load ptr, ptr %3, align 8
  %15 = getelementptr inbounds nuw %struct.dclist_head, ptr %14, i32 0, i32 0
  %16 = load ptr, ptr %4, align 8
  call void @dlist_push_head(ptr noundef %15, ptr noundef %16)
  %17 = load ptr, ptr %3, align 8
  %18 = getelementptr inbounds nuw %struct.dclist_head, ptr %17, i32 0, i32 1
  %19 = load i32, ptr %18, align 8
  %20 = add i32 %19, 1
  store i32 %20, ptr %18, align 8
  ret void
}

; Function Attrs: inlinehint nounwind uwtable
define internal void @dlist_init(ptr noundef %0) #6 {
  %2 = alloca ptr, align 8
  store ptr %0, ptr %2, align 8
  %3 = load ptr, ptr %2, align 8
  %4 = getelementptr inbounds nuw %struct.dlist_head, ptr %3, i32 0, i32 0
  %5 = load ptr, ptr %2, align 8
  %6 = getelementptr inbounds nuw %struct.dlist_head, ptr %5, i32 0, i32 0
  %7 = getelementptr inbounds nuw %struct.dlist_node, ptr %6, i32 0, i32 0
  store ptr %4, ptr %7, align 8
  %8 = load ptr, ptr %2, align 8
  %9 = getelementptr inbounds nuw %struct.dlist_head, ptr %8, i32 0, i32 0
  %10 = getelementptr inbounds nuw %struct.dlist_node, ptr %9, i32 0, i32 1
  store ptr %4, ptr %10, align 8
  ret void
}

; Function Attrs: inlinehint nounwind uwtable
define internal void @dclist_init(ptr noundef %0) #6 {
  %2 = alloca ptr, align 8
  store ptr %0, ptr %2, align 8
  %3 = load ptr, ptr %2, align 8
  %4 = getelementptr inbounds nuw %struct.dclist_head, ptr %3, i32 0, i32 0
  call void @dlist_init(ptr noundef %4)
  %5 = load ptr, ptr %2, align 8
  %6 = getelementptr inbounds nuw %struct.dclist_head, ptr %5, i32 0, i32 1
  store i32 0, ptr %6, align 8
  ret void
}

; Function Attrs: nounwind uwtable
define dso_local i64 @AutoVacuumShmemSize() #4 {
  %1 = alloca i64, align 8
  call void @llvm.lifetime.start.p0(i64 8, ptr %1) #14
  store i64 5192, ptr %1, align 8
  %2 = load i64, ptr %1, align 8
  %3 = add i64 %2, 7
  %4 = and i64 %3, -8
  store i64 %4, ptr %1, align 8
  %5 = load i64, ptr %1, align 8
  %6 = load i32, ptr @autovacuum_worker_slots, align 4
  %7 = sext i32 %6 to i64
  %8 = call i64 @mul_size(i64 noundef %7, i64 noundef 48)
  %9 = call i64 @add_size(i64 noundef %5, i64 noundef %8)
  store i64 %9, ptr %1, align 8
  %10 = load i64, ptr %1, align 8
  call void @llvm.lifetime.end.p0(i64 8, ptr %1) #14
  ret i64 %10
}

; Function Attrs: nounwind uwtable
define dso_local void @AutoVacuumShmemInit() #4 {
  %1 = alloca i8, align 1
  %2 = alloca ptr, align 8
  %3 = alloca i32, align 4
  call void @llvm.lifetime.start.p0(i64 1, ptr %1) #14
  %4 = call i64 @AutoVacuumShmemSize()
  %5 = call ptr @ShmemInitStruct(ptr noundef @.str.27, i64 noundef %4, ptr noundef %1)
  store ptr %5, ptr @AutoVacuumShmem, align 8
  %6 = load i8, ptr @IsUnderPostmaster, align 1, !range !6, !noundef !7
  %7 = trunc i8 %6 to i1
  br i1 %7, label %45, label %8

8:                                                ; preds = %0
  call void @llvm.lifetime.start.p0(i64 8, ptr %2) #14
  call void @llvm.lifetime.start.p0(i64 4, ptr %3) #14
  %9 = load ptr, ptr @AutoVacuumShmem, align 8
  %10 = getelementptr inbounds nuw %struct.AutoVacuumShmemStruct, ptr %9, i32 0, i32 1
  store i32 0, ptr %10, align 8
  %11 = load ptr, ptr @AutoVacuumShmem, align 8
  %12 = getelementptr inbounds nuw %struct.AutoVacuumShmemStruct, ptr %11, i32 0, i32 2
  call void @dclist_init(ptr noundef %12)
  %13 = load ptr, ptr @AutoVacuumShmem, align 8
  %14 = getelementptr inbounds nuw %struct.AutoVacuumShmemStruct, ptr %13, i32 0, i32 3
  call void @dlist_init(ptr noundef %14)
  %15 = load ptr, ptr @AutoVacuumShmem, align 8
  %16 = getelementptr inbounds nuw %struct.AutoVacuumShmemStruct, ptr %15, i32 0, i32 4
  store ptr null, ptr %16, align 8
  %17 = load ptr, ptr @AutoVacuumShmem, align 8
  %18 = getelementptr inbounds nuw %struct.AutoVacuumShmemStruct, ptr %17, i32 0, i32 5
  %19 = getelementptr inbounds [256 x %struct.AutoVacuumWorkItem], ptr %18, i64 0, i64 0
  call void @llvm.memset.p0.i64(ptr align 8 %19, i8 0, i64 5120, i1 false)
  %20 = load ptr, ptr @AutoVacuumShmem, align 8
  %21 = getelementptr inbounds nuw i8, ptr %20, i64 5192
  store ptr %21, ptr %2, align 8
  store i32 0, ptr %3, align 4
  br label %22

22:                                               ; preds = %39, %8
  %23 = load i32, ptr %3, align 4
  %24 = load i32, ptr @autovacuum_worker_slots, align 4
  %25 = icmp slt i32 %23, %24
  br i1 %25, label %26, label %42

26:                                               ; preds = %22
  %27 = load ptr, ptr @AutoVacuumShmem, align 8
  %28 = getelementptr inbounds nuw %struct.AutoVacuumShmemStruct, ptr %27, i32 0, i32 2
  %29 = load ptr, ptr %2, align 8
  %30 = load i32, ptr %3, align 4
  %31 = sext i32 %30 to i64
  %32 = getelementptr inbounds %struct.WorkerInfoData, ptr %29, i64 %31
  %33 = getelementptr inbounds nuw %struct.WorkerInfoData, ptr %32, i32 0, i32 0
  call void @dclist_push_head(ptr noundef %28, ptr noundef %33)
  %34 = load ptr, ptr %2, align 8
  %35 = load i32, ptr %3, align 4
  %36 = sext i32 %35 to i64
  %37 = getelementptr inbounds %struct.WorkerInfoData, ptr %34, i64 %36
  %38 = getelementptr inbounds nuw %struct.WorkerInfoData, ptr %37, i32 0, i32 5
  call void @pg_atomic_init_flag(ptr noundef %38)
  br label %39

39:                                               ; preds = %26
  %40 = load i32, ptr %3, align 4
  %41 = add i32 %40, 1
  store i32 %41, ptr %3, align 4
  br label %22, !llvm.loop !23

42:                                               ; preds = %22
  %43 = load ptr, ptr @AutoVacuumShmem, align 8
  %44 = getelementptr inbounds nuw %struct.AutoVacuumShmemStruct, ptr %43, i32 0, i32 6
  call void @pg_atomic_init_u32(ptr noundef %44, i32 noundef 0)
  call void @llvm.lifetime.end.p0(i64 4, ptr %3) #14
  call void @llvm.lifetime.end.p0(i64 8, ptr %2) #14
  br label %46

45:                                               ; preds = %0
  br label %46

46:                                               ; preds = %45, %42
  call void @llvm.lifetime.end.p0(i64 1, ptr %1) #14
  ret void
}