; Function Attrs: nounwind uwtable
define dso_local void @AutoVacuumShmemInit() local_unnamed_addr #4 {
  %1 = alloca i8, align 1
  call void @llvm.lifetime.start.p0(i64 1, ptr nonnull %1) #18
  %2 = load i32, ptr @autovacuum_worker_slots, align 4
  %3 = sext i32 %2 to i64
  %4 = tail call i64 @mul_size(i64 noundef %3, i64 noundef 48) #18
  %5 = tail call i64 @add_size(i64 noundef 5192, i64 noundef %4) #18
  %6 = call ptr @ShmemInitStruct(ptr noundef nonnull @.str.27, i64 noundef %5, ptr noundef nonnull %1) #18
  store ptr %6, ptr @AutoVacuumShmem, align 8
  %7 = load i8, ptr @IsUnderPostmaster, align 1, !range !4, !noundef !5
  %8 = trunc nuw i8 %7 to i1
  br i1 %8, label %39, label %9

9:                                                ; preds = %0
  %10 = getelementptr inbounds nuw i8, ptr %6, i64 8
  store i32 0, ptr %10, align 8
  %11 = getelementptr inbounds nuw i8, ptr %6, i64 16
  store ptr %11, ptr %11, align 8
  %12 = getelementptr inbounds nuw i8, ptr %6, i64 24
  store ptr %11, ptr %12, align 8
  %13 = getelementptr inbounds nuw i8, ptr %6, i64 32
  store i32 0, ptr %13, align 8
  %14 = getelementptr inbounds nuw i8, ptr %6, i64 40
  store ptr %14, ptr %14, align 8
  %15 = getelementptr inbounds nuw i8, ptr %6, i64 48
  store ptr %14, ptr %15, align 8
  %16 = getelementptr inbounds nuw i8, ptr %6, i64 56
  %17 = getelementptr inbounds nuw i8, ptr %6, i64 5192
  call void @llvm.memset.p0.i64(ptr noundef nonnull align 8 dereferenceable(5128) %16, i8 0, i64 5128, i1 false)
  %18 = load i32, ptr @autovacuum_worker_slots, align 4
  %19 = icmp sgt i32 %18, 0
  br i1 %19, label %.lr.ph, label %._crit_edge

.lr.ph:                                           ; preds = %9, %dclist_push_head.exit
  %indvars.iv = phi i64 [ %indvars.iv.next, %dclist_push_head.exit ], [ 0, %9 ]
  %20 = load ptr, ptr @AutoVacuumShmem, align 8
  %21 = getelementptr inbounds nuw i8, ptr %20, i64 16
  %22 = getelementptr inbounds nuw %struct.WorkerInfoData, ptr %17, i64 %indvars.iv
  %23 = getelementptr inbounds nuw i8, ptr %20, i64 24
  %24 = load ptr, ptr %23, align 8
  %25 = icmp eq ptr %24, null
  br i1 %25, label %26, label %dclist_push_head.exit

26:                                               ; preds = %.lr.ph
  store ptr %21, ptr %21, align 8
  %27 = getelementptr inbounds nuw i8, ptr %20, i64 32
  store i32 0, ptr %27, align 8
  br label %dclist_push_head.exit

dclist_push_head.exit:                            ; preds = %.lr.ph, %26
  %28 = phi ptr [ %21, %26 ], [ %24, %.lr.ph ]
  %29 = getelementptr inbounds nuw i8, ptr %22, i64 8
  store ptr %28, ptr %29, align 8
  store ptr %21, ptr %22, align 8
  store ptr %22, ptr %28, align 8
  store ptr %22, ptr %23, align 8
  %30 = getelementptr inbounds nuw i8, ptr %20, i64 32
  %31 = load i32, ptr %30, align 8
  %32 = add i32 %31, 1
  store i32 %32, ptr %30, align 8
  %33 = getelementptr inbounds nuw i8, ptr %22, i64 40
  call void asm sideeffect "", "~{memory},~{dirflag},~{fpsr},~{flags}"() #18, !srcloc !14
  store volatile i8 0, ptr %33, align 1
  %indvars.iv.next = add nuw nsw i64 %indvars.iv, 1
  %34 = load i32, ptr @autovacuum_worker_slots, align 4
  %35 = sext i32 %34 to i64
  %36 = icmp slt i64 %indvars.iv.next, %35
  br i1 %36, label %.lr.ph, label %._crit_edge.loopexit, !llvm.loop !22

._crit_edge.loopexit:                             ; preds = %dclist_push_head.exit
  %.pre = load ptr, ptr @AutoVacuumShmem, align 8
  br label %._crit_edge

._crit_edge:                                      ; preds = %._crit_edge.loopexit, %9
  %37 = phi ptr [ %.pre, %._crit_edge.loopexit ], [ %6, %9 ]
  %38 = getelementptr inbounds nuw i8, ptr %37, i64 5184
  store volatile i32 0, ptr %38, align 4
  br label %39

39:                                               ; preds = %0, %._crit_edge
  call void @llvm.lifetime.end.p0(i64 1, ptr nonnull %1) #18
  ret void
}